target datalayout = "e-m:e-p270:32:32-p271:32:32-p272:64:64-i64:64-i128:128-f80:128-n8:16:32:64-S128"
target triple = "x86_64-pc-linux-gnu"

%struct.mpitest_st = type { ptr, ptr, i64 }

@.str.17 = private unnamed_addr constant [25 x i8] c"../openssl/test/bntest.c\00", align 1
@.str.238 = private unnamed_addr constant [14 x i8] c"bn = BN_new()\00", align 1
@.str.242 = private unnamed_addr constant [3 x i8] c"bn\00", align 1
@.str.338 = private unnamed_addr constant [29 x i8] c"BN_asc2bn(&bn, test->base10)\00", align 1
@.str.339 = private unnamed_addr constant [8 x i8] c"mpi_len\00", align 1
@.str.340 = private unnamed_addr constant [16 x i8] c"sizeof(scratch)\00", align 1
@.str.341 = private unnamed_addr constant [34 x i8] c"mpi_len2 = BN_bn2mpi(bn, scratch)\00", align 1
@.str.342 = private unnamed_addr constant [10 x i8] c"test->mpi\00", align 1
@.str.343 = private unnamed_addr constant [8 x i8] c"scratch\00", align 1
@.str.344 = private unnamed_addr constant [40 x i8] c"bn2 = BN_mpi2bn(scratch, mpi_len, NULL)\00", align 1
@.str.345 = private unnamed_addr constant [4 x i8] c"bn2\00", align 1

; Function Attrs: nounwind uwtable
define internal i32 @test_mpi(i32 noundef %0) #0 {
  %2 = alloca i32, align 4
  %3 = alloca [8 x i8], align 1
  %4 = alloca ptr, align 8
  %5 = alloca i64, align 8
  %6 = alloca i64, align 8
  %7 = alloca ptr, align 8
  %8 = alloca ptr, align 8
  %9 = alloca i32, align 4
  store i32 %0, ptr %2, align 4, !tbaa !4
  call void @llvm.lifetime.start.p0(i64 8, ptr %3) #7
  call void @llvm.lifetime.start.p0(i64 8, ptr %4) #7
  %10 = load i32, ptr %2, align 4, !tbaa !4
  %11 = sext i32 %10 to i64
  %12 = getelementptr inbounds [6 x %struct.mpitest_st], ptr @kMPITests, i64 0, i64 %11
  store ptr %12, ptr %4, align 8, !tbaa !33
  call void @llvm.lifetime.start.p0(i64 8, ptr %5) #7
  call void @llvm.lifetime.start.p0(i64 8, ptr %6) #7
  call void @llvm.lifetime.start.p0(i64 8, ptr %7) #7
  store ptr null, ptr %7, align 8, !tbaa !13
  call void @llvm.lifetime.start.p0(i64 8, ptr %8) #7
  store ptr null, ptr %8, align 8, !tbaa !13
  call void @llvm.lifetime.start.p0(i64 4, ptr %9) #7
  store i32 0, ptr %9, align 4, !tbaa !4
  %13 = call ptr @BN_new()
  store ptr %13, ptr %7, align 8, !tbaa !13
  %14 = call i32 @test_ptr(ptr noundef @.str.17, i32 noundef 2204, ptr noundef @.str.238, ptr noundef %13)
  %15 = icmp ne i32 %14, 0
  br i1 %15, label %16, label %25

16:                                               ; preds = %1
  %17 = load ptr, ptr %4, align 8, !tbaa !33
  %18 = getelementptr inbounds nuw %struct.mpitest_st, ptr %17, i32 0, i32 0
  %19 = load ptr, ptr %18, align 8, !tbaa !35
  %20 = call i32 @BN_asc2bn(ptr noundef %7, ptr noundef %19)
  %21 = icmp ne i32 %20, 0
  %22 = zext i1 %21 to i32
  %23 = call i32 @test_true(ptr noundef @.str.17, i32 noundef 2205, ptr noundef @.str.338, i32 noundef %22)
  %24 = icmp ne i32 %23, 0
  br i1 %24, label %26, label %25

25:                                               ; preds = %16, %1
  br label %71

26:                                               ; preds = %16
  %27 = load ptr, ptr %7, align 8, !tbaa !13
  %28 = call i32 @BN_bn2mpi(ptr noundef %27, ptr noundef null)
  %29 = sext i32 %28 to i64
  store i64 %29, ptr %5, align 8, !tbaa !30
  %30 = load i64, ptr %5, align 8, !tbaa !30
  %31 = call i32 @test_size_t_le(ptr noundef @.str.17, i32 noundef 2208, ptr noundef @.str.339, ptr noundef @.str.340, i64 noundef %30, i64 noundef 8)
  %32 = icmp ne i32 %31, 0
  br i1 %32, label %34, label %33

33:                                               ; preds = %26
  br label %71

34:                                               ; preds = %26
  %35 = load ptr, ptr %7, align 8, !tbaa !13
  %36 = getelementptr inbounds [8 x i8], ptr %3, i64 0, i64 0
  %37 = call i32 @BN_bn2mpi(ptr noundef %35, ptr noundef %36)
  %38 = sext i32 %37 to i64
  store i64 %38, ptr %6, align 8, !tbaa !30
  %39 = load i64, ptr %5, align 8, !tbaa !30
  %40 = call i32 @test_size_t_eq(ptr noundef @.str.17, i32 noundef 2211, ptr noundef @.str.341, ptr noundef @.str.339, i64 noundef %38, i64 noundef %39)
  %41 = icmp ne i32 %40, 0
  br i1 %41, label %42, label %53

42:                                               ; preds = %34
  %43 = load ptr, ptr %4, align 8, !tbaa !33
  %44 = getelementptr inbounds nuw %struct.mpitest_st, ptr %43, i32 0, i32 1
  %45 = load ptr, ptr %44, align 8, !tbaa !37
  %46 = load ptr, ptr %4, align 8, !tbaa !33
  %47 = getelementptr inbounds nuw %struct.mpitest_st, ptr %46, i32 0, i32 2
  %48 = load i64, ptr %47, align 8, !tbaa !38
  %49 = getelementptr inbounds [8 x i8], ptr %3, i64 0, i64 0
  %50 = load i64, ptr %5, align 8, !tbaa !30
  %51 = call i32 @test_mem_eq(ptr noundef @.str.17, i32 noundef 2212, ptr noundef @.str.342, ptr noundef @.str.343, ptr noundef %45, i64 noundef %48, ptr noundef %49, i64 noundef %50)
  %52 = icmp ne i32 %51, 0
  br i1 %52, label %54, label %53

53:                                               ; preds = %42, %34
  br label %71

54:                                               ; preds = %42
  %55 = getelementptr inbounds [8 x i8], ptr %3, i64 0, i64 0
  %56 = load i64, ptr %5, align 8, !tbaa !30
  %57 = trunc i64 %56 to i32
  %58 = call ptr @BN_mpi2bn(ptr noundef %55, i32 noundef %57, ptr noundef null)
  store ptr %58, ptr %8, align 8, !tbaa !13
  %59 = call i32 @test_ptr(ptr noundef @.str.17, i32 noundef 2215, ptr noundef @.str.344, ptr noundef %58)
  %60 = icmp ne i32 %59, 0
  br i1 %60, label %62, label %61

61:                                               ; preds = %54
  br label %71

62:                                               ; preds = %54
  %63 = load ptr, ptr %7, align 8, !tbaa !13
  %64 = load ptr, ptr %8, align 8, !tbaa !13
  %65 = call i32 @test_BN_eq(ptr noundef @.str.17, i32 noundef 2218, ptr noundef @.str.242, ptr noundef @.str.345, ptr noundef %63, ptr noundef %64)
  %66 = icmp ne i32 %65, 0
  br i1 %66, label %69, label %67

67:                                               ; preds = %62
  %68 = load ptr, ptr %8, align 8, !tbaa !13
  call void @BN_free(ptr noundef %68)
  br label %71

69:                                               ; preds = %62
  %70 = load ptr, ptr %8, align 8, !tbaa !13
  call void @BN_free(ptr noundef %70)
  store i32 1, ptr %9, align 4, !tbaa !4
  br label %71

71:                                               ; preds = %69, %67, %61, %53, %33, %25
  %72 = load ptr, ptr %7, align 8, !tbaa !13
  call void @BN_free(ptr noundef %72)
  %73 = load i32, ptr %9, align 4, !tbaa !4
  call void @llvm.lifetime.end.p0(i64 4, ptr %9) #7
  call void @llvm.lifetime.end.p0(i64 8, ptr %8) #7
  call void @llvm.lifetime.end.p0(i64 8, ptr %7) #7
  call void @llvm.lifetime.end.p0(i64 8, ptr %6) #7
  call void @llvm.lifetime.end.p0(i64 8, ptr %5) #7
  call void @llvm.lifetime.end.p0(i64 8, ptr %4) #7
  call void @llvm.lifetime.end.p0(i64 8, ptr %3) #7
  ret i32 %73
}