; Function Attrs: nounwind uwtable
define internal range(i32 0, 2) i32 @test_mpi(i32 noundef %0) #1 {
  %2 = alloca [8 x i8], align 1
  %3 = alloca ptr, align 8
  call void @llvm.lifetime.start.p0(i64 8, ptr nonnull %2) #8
  %4 = sext i32 %0 to i64
  %5 = getelementptr inbounds [6 x %struct.mpitest_st], ptr @kMPITests, i64 0, i64 %4
  call void @llvm.lifetime.start.p0(i64 8, ptr nonnull %3) #8
  %6 = tail call ptr @BN_new() #8
  store ptr %6, ptr %3, align 8, !tbaa !21
  %7 = tail call i32 @test_ptr(ptr noundef nonnull @.str.17, i32 noundef 2204, ptr noundef nonnull @.str.238, ptr noundef %6) #8
  %.not = icmp eq i32 %7, 0
  br i1 %.not, label %36, label %8

8:                                                ; preds = %1
  %9 = load ptr, ptr %5, align 8, !tbaa !26
  %10 = call i32 @BN_asc2bn(ptr noundef nonnull %3, ptr noundef %9) #8
  %11 = icmp ne i32 %10, 0
  %12 = zext i1 %11 to i32
  %13 = call i32 @test_true(ptr noundef nonnull @.str.17, i32 noundef 2205, ptr noundef nonnull @.str.338, i32 noundef %12) #8
  %.not11 = icmp eq i32 %13, 0
  br i1 %.not11, label %36, label %14

14:                                               ; preds = %8
  %15 = load ptr, ptr %3, align 8, !tbaa !21
  %16 = call i32 @BN_bn2mpi(ptr noundef %15, ptr noundef null) #8
  %17 = sext i32 %16 to i64
  %18 = call i32 @test_size_t_le(ptr noundef nonnull @.str.17, i32 noundef 2208, ptr noundef nonnull @.str.339, ptr noundef nonnull @.str.340, i64 noundef %17, i64 noundef 8) #8
  %.not12 = icmp eq i32 %18, 0
  br i1 %.not12, label %36, label %19

19:                                               ; preds = %14
  %20 = load ptr, ptr %3, align 8, !tbaa !21
  %21 = call i32 @BN_bn2mpi(ptr noundef %20, ptr noundef nonnull %2) #8
  %22 = sext i32 %21 to i64
  %23 = call i32 @test_size_t_eq(ptr noundef nonnull @.str.17, i32 noundef 2211, ptr noundef nonnull @.str.341, ptr noundef nonnull @.str.339, i64 noundef %22, i64 noundef %17) #8
  %.not13 = icmp eq i32 %23, 0
  br i1 %.not13, label %36, label %24

24:                                               ; preds = %19
  %25 = getelementptr inbounds nuw i8, ptr %5, i64 8
  %26 = load ptr, ptr %25, align 8, !tbaa !30
  %27 = getelementptr inbounds nuw i8, ptr %5, i64 16
  %28 = load i64, ptr %27, align 8, !tbaa !31
  %29 = call i32 @test_mem_eq(ptr noundef nonnull @.str.17, i32 noundef 2212, ptr noundef nonnull @.str.342, ptr noundef nonnull @.str.343, ptr noundef %26, i64 noundef %28, ptr noundef nonnull %2, i64 noundef %17) #8
  %.not14 = icmp eq i32 %29, 0
  br i1 %.not14, label %36, label %30

30:                                               ; preds = %24
  %31 = call ptr @BN_mpi2bn(ptr noundef nonnull %2, i32 noundef %16, ptr noundef null) #8
  %32 = call i32 @test_ptr(ptr noundef nonnull @.str.17, i32 noundef 2215, ptr noundef nonnull @.str.344, ptr noundef %31) #8
  %.not15 = icmp eq i32 %32, 0
  br i1 %.not15, label %36, label %33

33:                                               ; preds = %30
  %34 = load ptr, ptr %3, align 8, !tbaa !21
  %35 = call i32 @test_BN_eq(ptr noundef nonnull @.str.17, i32 noundef 2218, ptr noundef nonnull @.str.242, ptr noundef nonnull @.str.345, ptr noundef %34, ptr noundef %31) #8
  %.not16 = icmp ne i32 %35, 0
  call void @BN_free(ptr noundef %31) #8
  %. = zext i1 %.not16 to i32
  br label %36

36:                                               ; preds = %33, %30, %19, %24, %14, %1, %8
  %.0 = phi i32 [ 0, %30 ], [ 0, %24 ], [ 0, %19 ], [ 0, %14 ], [ 0, %8 ], [ 0, %1 ], [ %., %33 ]
  %37 = load ptr, ptr %3, align 8, !tbaa !21
  call void @BN_free(ptr noundef %37) #8
  call void @llvm.lifetime.end.p0(i64 8, ptr nonnull %3) #8
  call void @llvm.lifetime.end.p0(i64 8, ptr nonnull %2) #8
  ret i32 %.0
}